Certificate:
    Data:
        Version: 3 (0x2)
        Serial Number: 1 (0x1)
        Signature Algorithm: sha256WithRSAEncryption
        Issuer: CN=devcert
        Validity
            Not Before: Jul 27 04:33:49 2020 GMT
            Not After : Oct 30 04:33:49 2022 GMT
        Subject: CN=localhost
        Subject Public Key Info:
            Public Key Algorithm: rsaEncryption
                RSA Public-Key: (2048 bit)
                Modulus:
                    00:a8:2d:19:50:25:97:a4:a8:1f:0b:c8:5d:04:31:
                    78:c7:f7:68:17:8a:f0:3d:30:b9:70:8a:da:45:9a:
                    fd:ae:14:69:cc:bb:90:0c:de:66:c1:c8:9a:3a:02:
                    53:54:8a:6f:8a:4e:ba:8a:f3:43:81:17:61:ff:db:
                    8b:09:80:4c:3a:72:e9:9e:c2:b6:03:89:71:21:69:
                    c3:b5:8a:6c:65:0d:dc:30:ea:1f:53:4f:29:e7:4f:
                    30:dc:ba:3d:ca:ee:5e:8a:78:e8:62:fe:f9:5f:67:
                    08:43:ce:17:e2:ae:e0:a5:2a:55:28:7f:1b:9c:82:
                    99:38:5d:c3:de:c8:f1:5e:a4:69:c5:48:f0:04:79:
                    f7:ca:b6:ac:c5:3c:1a:df:a5:2c:1b:81:70:10:03:
                    ec:f6:d7:31:10:b3:ff:c7:f4:26:fb:f3:fc:31:78:
                    c6:93:41:b2:fa:26:59:68:c2:f5:87:ef:ca:d6:09:
                    5d:9a:b7:d3:fd:3b:62:1e:7b:4d:9c:15:8d:6a:e6:
                    f4:d0:e2:ba:e1:e2:19:9a:ba:b6:96:37:53:86:20:
                    9b:60:30:57:bf:c1:8c:b8:c4:25:f4:84:56:d4:5e:
                    48:4a:0c:26:66:de:cc:dc:76:33:eb:12:78:7d:0d:
                    ff:41:fa:5a:dd:cc:20:dd:72:87:57:0e:3e:6c:36:
                    12:bb
                Exponent: 65537 (0x10001)
        X509v3 extensions:
            X509v3 Basic Constraints: critical
                CA:FALSE
            X509v3 Subject Key Identifier: 
                B3:BC:1D:DD:24:F9:11:2C:A9:C9:5F:FD:8B:9E:04:17:62:42:17:4C
            X509v3 Authority Key Identifier: 
                keyid:0C:20:B6:E1:8F:50:B1:EB:43:12:25:DD:14:75:90:9E:21:36:AD:19
                DirName:/CN=devcert
                serial:75:CA:B4:28:AF:43:FA:D1:50:A5:E9:AC:33:9D:C8:0B:ED:50:A7:EF

            X509v3 Key Usage: critical
                Digital Signature, Key Encipherment
            X509v3 Extended Key Usage: 
                TLS Web Server Authentication
            X509v3 Subject Alternative Name: 
                DNS:localhost, DNS:*.localhost
    Signature Algorithm: sha256WithRSAEncryption
         9e:2a:18:b1:80:38:e3:9f:45:23:bd:11:d0:a0:ba:46:64:d5:
         c3:e9:ea:76:fb:58:e6:8d:f2:ec:aa:c7:f2:e2:6f:72:b6:91:
         7b:67:72:a5:c2:24:aa:fe:1e:e6:03:28:ec:90:6a:f5:15:35:
         ac:40:f2:a4:8c:be:55:81:a2:91:9b:af:03:08:ad:ce:3c:74:
         9d:a0:43:39:c0:e1:e2:60:16:11:fd:40:7f:04:fa:7e:0e:12:
         83:41:e1:85:a9:a8:66:04:3e:ac:1f:90:e6:aa:90:dd:32:2b:
         5c:4f:af:64:be:12:33:df:70:4a:4c:03:54:b4:e2:2e:10:51:
         fe:ba:18:0a:16:a3:20:2a:11:f6:ab:c8:a5:8a:f3:00:d2:27:
         4e:5e:1f:ec:79:1a:77:df:c2:08:a6:07:e8:8f:49:e6:90:76:
         3b:60:d0:60:12:c6:68:ab:b1:ad:60:32:43:ac:42:85:f1:61:
         88:b7:18:f1:b8:bd:28:c6:ea:38:fb:1d:9f:44:c8:d0:a9:4e:
         cf:1d:78:09:7c:77:f3:03:59:49:42:7f:6d:d0:47:fb:39:ca:
         fe:57:0b:66:0c:f5:a8:cb:f1:b0:e6:09:ba:04:03:f6:93:3c:
         10:ef:3a:50:b4:35:7e:f8:db:f6:74:e9:43:23:2b:01:48:ef:
         6b:7b:82:ce
-----BEGIN CERTIFICATE-----
MIIDaTCCAlGgAwIBAgIBATANBgkqhkiG9w0BAQsFADASMRAwDgYDVQQDDAdkZXZj
ZXJ0MB4XDTIwMDcyNzA0MzM0OVoXDTIyMTAzMDA0MzM0OVowFDESMBAGA1UEAwwJ
bG9jYWxob3N0MIIBIjANBgkqhkiG9w0BAQEFAAOCAQ8AMIIBCgKCAQEAqC0ZUCWX
pKgfC8hdBDF4x/doF4rwPTC5cIraRZr9rhRpzLuQDN5mwciaOgJTVIpvik66ivND
gRdh/9uLCYBMOnLpnsK2A4lxIWnDtYpsZQ3cMOofU08p508w3Lo9yu5einjoYv75
X2cIQ84X4q7gpSpVKH8bnIKZOF3D3sjxXqRpxUjwBHn3yrasxTwa36UsG4FwEAPs
9tcxELP/x/Qm+/P8MXjGk0Gy+iZZaML1h+/K1gldmrfT/TtiHntNnBWNaub00OK6
4eIZmrq2ljdThiCbYDBXv8GMuMQl9IRW1F5ISgwmZt7M3HYz6xJ4fQ3/Qfpa3cwg
3XKHVw4+bDYSuwIDAQABo4HHMIHEMAwGA1UdEwEB/wQCMAAwHQYDVR0OBBYEFLO8
Hd0k+REsqclf/YueBBdiQhdMME0GA1UdIwRGMESAFAwgtuGPULHrQxIl3RR1kJ4h
Nq0ZoRakFDASMRAwDgYDVQQDDAdkZXZjZXJ0ghR1yrQor0P60VCl6awzncgL7VCn
7zAOBgNVHQ8BAf8EBAMCBaAwEwYDVR0lBAwwCgYIKwYBBQUHAwEwIQYDVR0RBBow
GIIJbG9jYWxob3N0ggsqLmxvY2FsaG9zdDANBgkqhkiG9w0BAQsFAAOCAQEAnioY
sYA4459FI70R0KC6RmTVw+nqdvtY5o3y7KrH8uJvcraRe2dypcIkqv4e5gMo7JBq
9RU1rEDypIy+VYGikZuvAwitzjx0naBDOcDh4mAWEf1AfwT6fg4Sg0HhhamoZgQ+
rB+Q5qqQ3TIrXE+vZL4SM99wSkwDVLTiLhBR/roYChajICoR9qvIpYrzANInTl4f
7Hkad9/CCKYH6I9J5pB2O2DQYBLGaKuxrWAyQ6xChfFhiLcY8bi9KMbqOPsdn0TI
0KlOzx14CXx38wNZSUJ/bdBH+znK/lcLZgz1qMvxsOYJugQD9pM8EO86ULQ1fvjb
9nTpQyMrAUjva3uCzg==
-----END CERTIFICATE-----
